Certificate:
    Data:
        Version: 3 (0x2)
        Serial Number: 143 (0x8f)
    Signature Algorithm: sha1WithRSAEncryption
        Issuer: DC=org, DC=cilogon, C=US, O=CILogon, CN=CILogon Host CA 1
        Validity
            Not Before: Sep 24 01:39:50 2020 GMT
            Not After : Sep 17 01:39:50 2050 GMT
        Subject: DC=org, DC=cilogon, C=US, O=CILogon, CN=polo-crl.ncsa.illinois.edu
        Subject Public Key Info:
            Public Key Algorithm: rsaEncryption
                Public-Key: (2048 bit)
                Modulus:
                    00:de:48:a1:d6:ad:e1:e0:fe:f2:d4:8b:e0:c9:cf:
                    9f:62:7a:5f:e1:bb:86:3a:c6:14:05:3d:9e:4e:b1:
                    9e:6c:7b:31:e8:e0:9a:3e:0f:01:80:05:a6:75:3e:
                    0c:b6:18:fc:01:75:4d:c5:ad:49:35:f9:a2:32:ce:
                    b2:45:19:fa:8e:62:1e:05:a1:42:c0:e4:40:b8:01:
                    2a:67:29:26:c0:f7:86:76:6a:ee:c1:8a:dc:d9:49:
                    39:e6:68:64:a7:cb:79:cb:a0:32:00:b1:85:c2:e7:
                    c5:00:59:6e:1b:8d:d1:d3:b3:b4:cb:58:56:4d:08:
                    50:25:7c:7c:74:f6:0e:a9:f3:27:90:98:67:bd:b8:
                    dc:e5:35:48:1b:d5:a9:9d:71:42:dc:31:1d:d7:80:
                    7a:2a:1d:95:5a:83:f6:04:e7:65:ef:9f:14:02:13:
                    bf:fa:2b:b5:5d:c9:81:db:0f:1b:e3:ef:9a:ed:bf:
                    86:f0:e8:e9:12:77:f2:d8:b4:64:d9:cd:c2:5f:36:
                    4c:96:37:e5:ed:0b:41:27:ac:45:0b:2b:64:af:27:
                    27:0b:ec:b9:bf:85:24:9b:27:c2:05:c5:17:31:6e:
                    7d:b7:35:77:ba:25:f9:d6:20:3f:80:33:ee:7d:e5:
                    10:82:7f:09:a1:c9:0d:e2:cf:75:49:7e:bf:26:07:
                    1f:79
                Exponent: 65537 (0x10001)
        X509v3 extensions:
            X509v3 Basic Constraints: critical
                CA:FALSE
            X509v3 Key Usage: critical
                Digital Signature, Key Encipherment, Data Encipherment
            X509v3 Extended Key Usage: 
                TLS Web Client Authentication, TLS Web Server Authentication
            X509v3 Certificate Policies: 
                Policy: 1.3.6.1.4.1.34998.1.4.1

            X509v3 CRL Distribution Points: 

                Full Name:
                  URI:http://crl.cilogon.org/cilogon-host.crl

            X509v3 Subject Alternative Name: 
                email:help+idp@ncsa.illinois.edu, DNS:polo-crl.ncsa.illinois.edu
    Signature Algorithm: sha1WithRSAEncryption
         95:54:77:cd:52:76:9a:de:43:9d:5b:38:9f:8e:b9:09:17:2f:
         07:8e:bf:b3:34:d9:9f:16:7d:ac:3a:18:b2:9c:65:9b:9f:70:
         d3:b5:8d:a1:07:d2:42:ad:1e:84:65:a9:b7:4e:a4:88:f2:7b:
         03:99:eb:3a:2c:6e:32:74:18:05:f5:55:f5:51:50:80:ba:9f:
         33:9c:8f:70:27:dd:0d:ce:28:cb:8f:4a:cc:c6:55:5b:3d:13:
         ae:0f:34:e1:fb:34:e6:f1:75:85:23:ad:58:e6:5a:c7:e3:d4:
         fc:43:ed:c8:a6:21:f5:7f:0f:26:ac:55:b5:a6:60:a5:fc:87:
         53:35:04:78:3e:c8:dc:3c:39:01:fb:1d:c4:cc:d9:ac:b0:9c:
         4f:0c:ea:12:bf:4e:d5:6d:f8:4b:eb:7e:0d:b0:bd:cb:b3:3a:
         b0:86:69:b1:5c:58:e9:ff:e7:93:4d:72:3e:91:5a:bf:cc:d8:
         05:56:aa:29:5d:e3:55:19:4f:51:09:b6:ee:08:fa:07:8e:15:
         d5:9a:43:4d:d2:3d:b8:dd:bd:0a:08:5a:f0:2d:e1:66:ca:8f:
         9f:b0:31:3c:22:13:1c:ec:cd:82:11:fd:25:d9:b9:f8:fc:d0:
         c9:54:0b:65:c4:dc:8d:9d:94:9c:14:0e:14:12:d8:e7:06:3c:
         d1:5d:94:f3
-----BEGIN CERTIFICATE-----
MIIEMTCCAxmgAwIBAgICAI8wDQYJKoZIhvcNAQEFBQAwaTETMBEGCgmSJomT8ixk
ARkWA29yZzEXMBUGCgmSJomT8ixkARkWB2NpbG9nb24xCzAJBgNVBAYTAlVTMRAw
DgYDVQQKEwdDSUxvZ29uMRowGAYDVQQDExFDSUxvZ29uIEhvc3QgQ0EgMTAgFw0y
MDA5MjQwMTM5NTBaGA8yMDUwMDkxNzAxMzk1MFowcjETMBEGCgmSJomT8ixkARkW
A29yZzEXMBUGCgmSJomT8ixkARkWB2NpbG9nb24xCzAJBgNVBAYTAlVTMRAwDgYD
VQQKEwdDSUxvZ29uMSMwIQYDVQQDExpwb2xvLWNybC5uY3NhLmlsbGlub2lzLmVk
dTCCASIwDQYJKoZIhvcNAQEBBQADggEPADCCAQoCggEBAN5Iodat4eD+8tSL4MnP
n2J6X+G7hjrGFAU9nk6xnmx7Mejgmj4PAYAFpnU+DLYY/AF1TcWtSTX5ojLOskUZ
+o5iHgWhQsDkQLgBKmcpJsD3hnZq7sGK3NlJOeZoZKfLecugMgCxhcLnxQBZbhuN
0dOztMtYVk0IUCV8fHT2DqnzJ5CYZ7243OU1SBvVqZ1xQtwxHdeAeiodlVqD9gTn
Ze+fFAITv/ortV3JgdsPG+Pvmu2/hvDo6RJ38ti0ZNnNwl82TJY35e0LQSesRQsr
ZK8nJwvsub+FJJsnwgXFFzFufbc1d7ol+dYgP4Az7n3lEIJ/CaHJDeLPdUl+vyYH
H3kCAwEAAaOB1zCB1DAMBgNVHRMBAf8EAjAAMA4GA1UdDwEB/wQEAwIEsDAdBgNV
HSUEFjAUBggrBgEFBQcDAgYIKwYBBQUHAwEwGAYDVR0gBBEwDzANBgsrBgEEAYKR
NgEEATA4BgNVHR8EMTAvMC2gK6AphidodHRwOi8vY3JsLmNpbG9nb24ub3JnL2Np
bG9nb24taG9zdC5jcmwwQQYDVR0RBDowOIEaaGVscCtpZHBAbmNzYS5pbGxpbm9p
cy5lZHWCGnBvbG8tY3JsLm5jc2EuaWxsaW5vaXMuZWR1MA0GCSqGSIb3DQEBBQUA
A4IBAQCVVHfNUnaa3kOdWzifjrkJFy8Hjr+zNNmfFn2sOhiynGWbn3DTtY2hB9JC
rR6EZam3TqSI8nsDmes6LG4ydBgF9VX1UVCAup8znI9wJ90NzijLj0rMxlVbPROu
DzTh+zTm8XWFI61Y5lrH49T8Q+3IpiH1fw8mrFW1pmCl/IdTNQR4PsjcPDkB+x3E
zNmssJxPDOoSv07VbfhL634NsL3LszqwhmmxXFjp/+eTTXI+kVq/zNgFVqopXeNV
GU9RCbbuCPoHjhXVmkNN0j243b0KCFrwLeFmyo+fsDE8IhMc7M2CEf0l2bn4/NDJ
VAtlxNyNnZScFA4UEtjnBjzRXZTz
-----END CERTIFICATE-----
